; ModuleID = '34/60.c'
source_filename = "34/60.c"
target datalayout = "e-m:e-p270:32:32-p271:32:32-p272:64:64-i64:64-f80:128-n8:16:32:64-S128"
target triple = "x86_64-pc-linux-gnu"

@.str = private unnamed_addr constant [3 x i8] c"%d\00", align 1
@.str.1 = private unnamed_addr constant [4 x i8] c"End\00", align 1
@.str.2 = private unnamed_addr constant [11 x i8] c"%d*3+1=%d\0A\00", align 1
@.str.3 = private unnamed_addr constant [9 x i8] c"%d/2=%d\0A\00", align 1

; Function Attrs: noinline nounwind uwtable
define dso_local i32 @main() #0 {
  %1 = alloca i32, align 4
  %2 = alloca i32, align 4
  %3 = alloca i32, align 4
  %4 = alloca i32, align 4
  %5 = alloca i32, align 4
  %6 = alloca i32, align 4
  store i32 0, i32* %1, align 4
  %7 = call i32 (i8*, ...) @__isoc99_scanf(i8* getelementptr inbounds ([3 x i8], [3 x i8]* @.str, i64 0, i64 0), i32* %5)
  br label %8

8:                                                ; preds = %32, %0
  %9 = load i32, i32* %5, align 4
  %10 = icmp eq i32 %9, 1
  br i1 %10, label %11, label %13

11:                                               ; preds = %8
  %12 = call i32 (i8*, ...) @printf(i8* getelementptr inbounds ([4 x i8], [4 x i8]* @.str.1, i64 0, i64 0))
  br label %33

13:                                               ; preds = %8
  %14 = load i32, i32* %5, align 4
  %15 = srem i32 %14, 2
  %16 = icmp ne i32 %15, 0
  br i1 %16, label %17, label %25

17:                                               ; preds = %13
  %18 = load i32, i32* %5, align 4
  %19 = mul nsw i32 %18, 3
  %20 = add nsw i32 %19, 1
  store i32 %20, i32* %6, align 4
  %21 = load i32, i32* %5, align 4
  %22 = load i32, i32* %6, align 4
  %23 = call i32 (i8*, ...) @printf(i8* getelementptr inbounds ([11 x i8], [11 x i8]* @.str.2, i64 0, i64 0), i32 %21, i32 %22)
  %24 = load i32, i32* %6, align 4
  store i32 %24, i32* %5, align 4
  br label %32

25:                                               ; preds = %13
  %26 = load i32, i32* %5, align 4
  %27 = sdiv i32 %26, 2
  store i32 %27, i32* %6, align 4
  %28 = load i32, i32* %5, align 4
  %29 = load i32, i32* %6, align 4
  %30 = call i32 (i8*, ...) @printf(i8* getelementptr inbounds ([9 x i8], [9 x i8]* @.str.3, i64 0, i64 0), i32 %28, i32 %29)
  %31 = load i32, i32* %6, align 4
  store i32 %31, i32* %5, align 4
  br label %32

32:                                               ; preds = %25, %17
  br label %8

33:                                               ; preds = %11
  %34 = load i32, i32* %1, align 4
  ret i32 %34
}

declare dso_local i32 @__isoc99_scanf(i8*, ...) #1

declare dso_local i32 @printf(i8*, ...) #1


!llvm.module.flags = !{!0}
!llvm.ident = !{!1}

!0 = !{i32 1, !"wchar_size", i32 4}
!1 = !{!"clang version 10.0.0-4ubuntu1 "}
